; Function Attrs: mustprogress null_pointer_is_valid sspstrong uwtable
define internal void @_ZL22qt_log_message_handler9QtMsgTypeRK18QMessageLogContextRK7QString(i32 noundef %0, ptr noundef readonly align 8 captures(none) dereferenceable(32) %1, ptr noundef align 8 dereferenceable(24) %2) #0 personality ptr @__gxx_personality_v0 {
  %4 = alloca %class.QByteArray, align 8
  %5 = alloca %class.QByteArray, align 8
  %6 = getelementptr inbounds nuw i8, ptr %1, i64 8
  %7 = load ptr, ptr %6, align 8
  %8 = getelementptr inbounds nuw i8, ptr %1, i64 4
  %9 = load i32, ptr %8, align 4
  %10 = icmp sgt i32 %9, 0
  %spec.select = select i1 %10, i32 %9, i32 -1
  %11 = getelementptr inbounds nuw i8, ptr %1, i64 16
  %12 = load ptr, ptr %11, align 8
  switch i32 %0, label %17 [
    i32 4, label %.thread
    i32 1, label %13
    i32 2, label %14
    i32 3, label %15
    i32 0, label %16
  ]

13:                                               ; preds = %3
  br label %17

14:                                               ; preds = %3
  br label %17

15:                                               ; preds = %3
  br label %17

16:                                               ; preds = %3
  br label %17

17:                                               ; preds = %16, %15, %14, %13, %3
  %.020 = phi i32 [ 0, %3 ], [ 8, %16 ], [ 7, %15 ], [ 6, %14 ], [ 5, %13 ]
  %.not = icmp eq ptr %12, null
  br i1 %.not, label %.thread, label %18

18:                                               ; preds = %17
  call void @llvm.lifetime.start.p0(i64 24, ptr nonnull %4) #19
  call void @_ZN7QString13toUtf8_helperERKS_(ptr dead_on_unwind nonnull writable sret(%class.QByteArray) align 8 %4, ptr noundef align 8 dereferenceable(24) dereferenceable_or_null(24) %2)
  %19 = getelementptr inbounds nuw i8, ptr %4, i64 8
  %20 = load ptr, ptr %19, align 8
  %.not.i.i = icmp eq ptr %20, null
  %spec.select.i.i = select i1 %.not.i.i, ptr @_ZN10QByteArray6_emptyE, ptr %20
  %21 = sext i32 %spec.select to i64
  invoke void (ptr, i32, ptr, i64, ptr, ptr, ...) @ws_log_full(ptr noundef nonnull @.str.36, i32 noundef %.020, ptr noundef %7, i64 noundef %21, ptr noundef null, ptr noundef nonnull @.str.37, ptr noundef nonnull %12, ptr noundef nonnull %spec.select.i.i)
          to label %22 unwind label %27

22:                                               ; preds = %18
  %23 = load ptr, ptr %4, align 8
  %.not.i.i.i = icmp eq ptr %23, null
  br i1 %.not.i.i.i, label %_ZN10QByteArrayD2Ev.exit, label %_ZN17QArrayDataPointerIcE5derefEv.exit.i.i

_ZN17QArrayDataPointerIcE5derefEv.exit.i.i:       ; preds = %22
  %24 = atomicrmw sub ptr %23, i32 1 seq_cst, align 4
  %.not.i.i23 = icmp eq i32 %24, 1
  br i1 %.not.i.i23, label %25, label %_ZN10QByteArrayD2Ev.exit

25:                                               ; preds = %_ZN17QArrayDataPointerIcE5derefEv.exit.i.i
  %26 = load ptr, ptr %4, align 8
  call void @_ZN10QArrayData10deallocateEPS_xx(ptr noundef %26, i64 noundef 1, i64 noundef 8) #19
  br label %_ZN10QByteArrayD2Ev.exit

_ZN10QByteArrayD2Ev.exit:                         ; preds = %22, %_ZN17QArrayDataPointerIcE5derefEv.exit.i.i, %25
  call void @llvm.lifetime.end.p0(i64 24, ptr nonnull %4) #19
  br label %47

27:                                               ; preds = %18
  %28 = landingpad { ptr, i32 }
          cleanup
  %29 = load ptr, ptr %4, align 8
  %.not.i.i.i24 = icmp eq ptr %29, null
  br i1 %.not.i.i.i24, label %_ZN10QByteArrayD2Ev.exit27, label %_ZN17QArrayDataPointerIcE5derefEv.exit.i.i25

_ZN17QArrayDataPointerIcE5derefEv.exit.i.i25:     ; preds = %27
  %30 = atomicrmw sub ptr %29, i32 1 seq_cst, align 4
  %.not.i.i26 = icmp eq i32 %30, 1
  br i1 %.not.i.i26, label %31, label %_ZN10QByteArrayD2Ev.exit27

31:                                               ; preds = %_ZN17QArrayDataPointerIcE5derefEv.exit.i.i25
  %32 = load ptr, ptr %4, align 8
  call void @_ZN10QArrayData10deallocateEPS_xx(ptr noundef %32, i64 noundef 1, i64 noundef 8) #19
  br label %_ZN10QByteArrayD2Ev.exit27

_ZN10QByteArrayD2Ev.exit27:                       ; preds = %27, %_ZN17QArrayDataPointerIcE5derefEv.exit.i.i25, %31
  call void @llvm.lifetime.end.p0(i64 24, ptr nonnull %4) #19
  br label %48

.thread:                                          ; preds = %3, %17
  %.01845 = phi i32 [ %spec.select, %17 ], [ -1, %3 ]
  %.01944 = phi ptr [ %7, %17 ], [ null, %3 ]
  %.02043 = phi i32 [ %.020, %17 ], [ 3, %3 ]
  call void @llvm.lifetime.start.p0(i64 24, ptr nonnull %5) #19
  call void @_ZN7QString13toUtf8_helperERKS_(ptr dead_on_unwind nonnull writable sret(%class.QByteArray) align 8 %5, ptr noundef align 8 dereferenceable(24) dereferenceable_or_null(24) %2)
  %33 = getelementptr inbounds nuw i8, ptr %5, i64 8
  %34 = load ptr, ptr %33, align 8
  %.not.i.i28 = icmp eq ptr %34, null
  %spec.select.i.i29 = select i1 %.not.i.i28, ptr @_ZN10QByteArray6_emptyE, ptr %34
  %35 = sext i32 %.01845 to i64
  invoke void (ptr, i32, ptr, i64, ptr, ptr, ...) @ws_log_full(ptr noundef nonnull @.str.36, i32 noundef %.02043, ptr noundef %.01944, i64 noundef %35, ptr noundef null, ptr noundef nonnull @.str.7, ptr noundef nonnull %spec.select.i.i29)
          to label %36 unwind label %41

36:                                               ; preds = %.thread
  %37 = load ptr, ptr %5, align 8
  %.not.i.i.i30 = icmp eq ptr %37, null
  br i1 %.not.i.i.i30, label %_ZN10QByteArrayD2Ev.exit33, label %_ZN17QArrayDataPointerIcE5derefEv.exit.i.i31

_ZN17QArrayDataPointerIcE5derefEv.exit.i.i31:     ; preds = %36
  %38 = atomicrmw sub ptr %37, i32 1 seq_cst, align 4
  %.not.i.i32 = icmp eq i32 %38, 1
  br i1 %.not.i.i32, label %39, label %_ZN10QByteArrayD2Ev.exit33

39:                                               ; preds = %_ZN17QArrayDataPointerIcE5derefEv.exit.i.i31
  %40 = load ptr, ptr %5, align 8
  call void @_ZN10QArrayData10deallocateEPS_xx(ptr noundef %40, i64 noundef 1, i64 noundef 8) #19
  br label %_ZN10QByteArrayD2Ev.exit33

_ZN10QByteArrayD2Ev.exit33:                       ; preds = %36, %_ZN17QArrayDataPointerIcE5derefEv.exit.i.i31, %39
  call void @llvm.lifetime.end.p0(i64 24, ptr nonnull %5) #19
  br label %47

41:                                               ; preds = %.thread
  %42 = landingpad { ptr, i32 }
          cleanup
  %43 = load ptr, ptr %5, align 8
  %.not.i.i.i34 = icmp eq ptr %43, null
  br i1 %.not.i.i.i34, label %_ZN10QByteArrayD2Ev.exit37, label %_ZN17QArrayDataPointerIcE5derefEv.exit.i.i35

_ZN17QArrayDataPointerIcE5derefEv.exit.i.i35:     ; preds = %41
  %44 = atomicrmw sub ptr %43, i32 1 seq_cst, align 4
  %.not.i.i36 = icmp eq i32 %44, 1
  br i1 %.not.i.i36, label %45, label %_ZN10QByteArrayD2Ev.exit37

45:                                               ; preds = %_ZN17QArrayDataPointerIcE5derefEv.exit.i.i35
  %46 = load ptr, ptr %5, align 8
  call void @_ZN10QArrayData10deallocateEPS_xx(ptr noundef %46, i64 noundef 1, i64 noundef 8) #19
  br label %_ZN10QByteArrayD2Ev.exit37

_ZN10QByteArrayD2Ev.exit37:                       ; preds = %41, %_ZN17QArrayDataPointerIcE5derefEv.exit.i.i35, %45
  call void @llvm.lifetime.end.p0(i64 24, ptr nonnull %5) #19
  br label %48

47:                                               ; preds = %_ZN10QByteArrayD2Ev.exit33, %_ZN10QByteArrayD2Ev.exit
  ret void

48:                                               ; preds = %_ZN10QByteArrayD2Ev.exit37, %_ZN10QByteArrayD2Ev.exit27
  %.pn = phi { ptr, i32 } [ %28, %_ZN10QByteArrayD2Ev.exit27 ], [ %42, %_ZN10QByteArrayD2Ev.exit37 ]
  resume { ptr, i32 } %.pn
}